target datalayout = "e-m:e-p270:32:32-p271:32:32-p272:64:64-i64:64-i128:128-f80:128-n8:16:32:64-S128"
target triple = "x86_64-pc-linux-gnu"

@.str.59 = private unnamed_addr constant [4 x i8] c"O|s\00", align 1
@.str.68 = private unnamed_addr constant [3 x i8] c"et\00", align 1

; Function Attrs: nounwind uwtable
define internal ptr @getargs_et(ptr noundef %0, ptr noundef %1) #0 {
  %3 = alloca ptr, align 8
  %4 = alloca ptr, align 8
  %5 = alloca ptr, align 8
  %6 = alloca ptr, align 8
  %7 = alloca ptr, align 8
  %8 = alloca ptr, align 8
  %9 = alloca i32, align 4
  %10 = alloca ptr, align 8
  store ptr %0, ptr %4, align 8, !tbaa !3
  store ptr %1, ptr %5, align 8, !tbaa !3
  call void @llvm.lifetime.start.p0(i64 8, ptr %6) #9
  call void @llvm.lifetime.start.p0(i64 8, ptr %7) #9
  store ptr null, ptr %7, align 8, !tbaa !17
  call void @llvm.lifetime.start.p0(i64 8, ptr %8) #9
  %11 = load ptr, ptr %5, align 8, !tbaa !3
  %12 = call i32 (ptr, ptr, ...) @PyArg_ParseTuple(ptr noundef %11, ptr noundef @.str.59, ptr noundef %6, ptr noundef %7)
  %13 = icmp ne i32 %12, 0
  br i1 %13, label %15, label %14

14:                                               ; preds = %2
  store ptr null, ptr %3, align 8
  store i32 1, ptr %9, align 4
  br label %26

15:                                               ; preds = %2
  %16 = load ptr, ptr %6, align 8, !tbaa !3
  %17 = load ptr, ptr %7, align 8, !tbaa !17
  %18 = call i32 (ptr, ptr, ...) @PyArg_Parse(ptr noundef %16, ptr noundef @.str.68, ptr noundef %17, ptr noundef %8)
  %19 = icmp ne i32 %18, 0
  br i1 %19, label %21, label %20

20:                                               ; preds = %15
  store ptr null, ptr %3, align 8
  store i32 1, ptr %9, align 4
  br label %26

21:                                               ; preds = %15
  call void @llvm.lifetime.start.p0(i64 8, ptr %10) #9
  %22 = load ptr, ptr %8, align 8, !tbaa !17
  %23 = call ptr @PyBytes_FromString(ptr noundef %22)
  store ptr %23, ptr %10, align 8, !tbaa !3
  %24 = load ptr, ptr %8, align 8, !tbaa !17
  call void @PyMem_Free(ptr noundef %24)
  %25 = load ptr, ptr %10, align 8, !tbaa !3
  store ptr %25, ptr %3, align 8
  store i32 1, ptr %9, align 4
  call void @llvm.lifetime.end.p0(i64 8, ptr %10) #9
  br label %26

26:                                               ; preds = %21, %20, %14
  call void @llvm.lifetime.end.p0(i64 8, ptr %8) #9
  call void @llvm.lifetime.end.p0(i64 8, ptr %7) #9
  call void @llvm.lifetime.end.p0(i64 8, ptr %6) #9
  %27 = load ptr, ptr %3, align 8
  ret ptr %27
}