; Function Attrs: nounwind uwtable
define internal ptr @getargs_et(ptr readnone captures(none) %0, ptr noundef %1) #0 {
  %3 = alloca ptr, align 8
  %4 = alloca ptr, align 8
  %5 = alloca ptr, align 8
  call void @llvm.lifetime.start.p0(i64 8, ptr nonnull %3) #7
  call void @llvm.lifetime.start.p0(i64 8, ptr nonnull %4) #7
  store ptr null, ptr %4, align 8, !tbaa !17
  call void @llvm.lifetime.start.p0(i64 8, ptr nonnull %5) #7
  %6 = call i32 (ptr, ptr, ...) @PyArg_ParseTuple(ptr noundef %1, ptr noundef nonnull @.str.59, ptr noundef nonnull %3, ptr noundef nonnull %4) #7
  %.not = icmp eq i32 %6, 0
  br i1 %.not, label %15, label %7

7:                                                ; preds = %2
  %8 = load ptr, ptr %3, align 8, !tbaa !12
  %9 = load ptr, ptr %4, align 8, !tbaa !17
  %10 = call i32 (ptr, ptr, ...) @PyArg_Parse(ptr noundef %8, ptr noundef nonnull @.str.68, ptr noundef %9, ptr noundef nonnull %5) #7
  %.not3 = icmp eq i32 %10, 0
  br i1 %.not3, label %15, label %11

11:                                               ; preds = %7
  %12 = load ptr, ptr %5, align 8, !tbaa !17
  %13 = call ptr @PyBytes_FromString(ptr noundef %12) #7
  %14 = load ptr, ptr %5, align 8, !tbaa !17
  call void @PyMem_Free(ptr noundef %14) #7
  br label %15

15:                                               ; preds = %7, %2, %11
  %.0 = phi ptr [ %13, %11 ], [ null, %2 ], [ null, %7 ]
  call void @llvm.lifetime.end.p0(i64 8, ptr nonnull %5) #7
  call void @llvm.lifetime.end.p0(i64 8, ptr nonnull %4) #7
  call void @llvm.lifetime.end.p0(i64 8, ptr nonnull %3) #7
  ret ptr %.0
}